target datalayout = "e-m:e-p270:32:32-p271:32:32-p272:64:64-i64:64-i128:128-f80:128-n8:16:32:64-S128"
target triple = "x86_64-pc-linux-gnu"

%struct.malloc_state = type { i32, i32, i64, i64, ptr, ptr, ptr, i64, i64, i64, [66 x ptr], [32 x ptr], i64, i64, i64, i32, i32, %struct.malloc_segment, ptr, i64 }
%struct.malloc_segment = type { ptr, i64, ptr, i32 }

; Function Attrs: nounwind uwtable
define internal i32 @spin_acquire_lock(ptr noundef %0) #0 {
  %2 = alloca ptr, align 8
  %3 = alloca i32, align 4
  store ptr %0, ptr %2, align 8, !tbaa !16
  call void @llvm.lifetime.start.p0(i64 4, ptr %3) #9
  store i32 0, ptr %3, align 4, !tbaa !14
  br label %4

4:                                                ; preds = %21, %1
  %5 = load ptr, ptr %2, align 8, !tbaa !16
  %6 = load volatile i32, ptr %5, align 4, !tbaa !14
  %7 = icmp ne i32 %6, 0
  br i1 %7, label %12, label %8

8:                                                ; preds = %4
  %9 = load ptr, ptr %2, align 8, !tbaa !16
  %10 = atomicrmw xchg ptr %9, i32 1 seq_cst, align 4
  %11 = icmp ne i32 %10, 0
  br label %12

12:                                               ; preds = %8, %4
  %13 = phi i1 [ true, %4 ], [ %11, %8 ]
  br i1 %13, label %14, label %22

14:                                               ; preds = %12
  %15 = load i32, ptr %3, align 4, !tbaa !14
  %16 = add nsw i32 %15, 1
  store i32 %16, ptr %3, align 4, !tbaa !14
  %17 = and i32 %16, 63
  %18 = icmp eq i32 %17, 0
  br i1 %18, label %19, label %21

19:                                               ; preds = %14
  %20 = call i32 @sched_yield() #9
  br label %21

21:                                               ; preds = %19, %14
  br label %4, !llvm.loop !34

22:                                               ; preds = %12
  call void @llvm.lifetime.end.p0(i64 4, ptr %3) #9
  ret i32 0
}

; Function Attrs: nounwind uwtable
define hidden ptr @mspace_realloc_in_place(ptr noundef %0, ptr noundef %1, i64 noundef %2) #0 {
  %4 = alloca ptr, align 8
  %5 = alloca ptr, align 8
  %6 = alloca i64, align 8
  %7 = alloca ptr, align 8
  %8 = alloca i64, align 8
  %9 = alloca ptr, align 8
  %10 = alloca ptr, align 8
  %11 = alloca ptr, align 8
  store ptr %0, ptr %4, align 8, !tbaa !16
  store ptr %1, ptr %5, align 8, !tbaa !16
  store i64 %2, ptr %6, align 8, !tbaa !3
  call void @llvm.lifetime.start.p0(i64 8, ptr %7) #9
  store ptr null, ptr %7, align 8, !tbaa !16
  %12 = load ptr, ptr %5, align 8, !tbaa !16
  %13 = icmp ne ptr %12, null
  br i1 %13, label %14, label %72

14:                                               ; preds = %3
  %15 = load i64, ptr %6, align 8, !tbaa !3
  %16 = icmp uge i64 %15, -128
  br i1 %16, label %17, label %19

17:                                               ; preds = %14
  %18 = call ptr @__errno_location() #11
  store i32 12, ptr %18, align 4, !tbaa !14
  br label %71

19:                                               ; preds = %14
  call void @llvm.lifetime.start.p0(i64 8, ptr %8) #9
  %20 = load i64, ptr %6, align 8, !tbaa !3
  %21 = icmp ult i64 %20, 23
  br i1 %21, label %22, label %23

22:                                               ; preds = %19
  br label %28

23:                                               ; preds = %19
  %24 = load i64, ptr %6, align 8, !tbaa !3
  %25 = add i64 %24, 8
  %26 = add i64 %25, 15
  %27 = and i64 %26, -16
  br label %28

28:                                               ; preds = %23, %22
  %29 = phi i64 [ 32, %22 ], [ %27, %23 ]
  store i64 %29, ptr %8, align 8, !tbaa !3
  call void @llvm.lifetime.start.p0(i64 8, ptr %9) #9
  %30 = load ptr, ptr %5, align 8, !tbaa !16
  %31 = getelementptr inbounds i8, ptr %30, i64 -16
  store ptr %31, ptr %9, align 8, !tbaa !16
  call void @llvm.lifetime.start.p0(i64 8, ptr %10) #9
  %32 = load ptr, ptr %4, align 8, !tbaa !16
  store ptr %32, ptr %10, align 8, !tbaa !16
  %33 = load ptr, ptr %10, align 8, !tbaa !16
  %34 = getelementptr inbounds nuw %struct.malloc_state, ptr %33, i32 0, i32 15
  %35 = load i32, ptr %34, align 8, !tbaa !10
  %36 = and i32 %35, 2
  %37 = icmp ne i32 %36, 0
  br i1 %37, label %38, label %49

38:                                               ; preds = %28
  %39 = load ptr, ptr %10, align 8, !tbaa !16
  %40 = getelementptr inbounds nuw %struct.malloc_state, ptr %39, i32 0, i32 16
  %41 = atomicrmw xchg ptr %40, i32 1 seq_cst, align 4
  %42 = icmp ne i32 %41, 0
  br i1 %42, label %43, label %48

43:                                               ; preds = %38
  %44 = load ptr, ptr %10, align 8, !tbaa !16
  %45 = getelementptr inbounds nuw %struct.malloc_state, ptr %44, i32 0, i32 16
  %46 = call i32 @spin_acquire_lock(ptr noundef %45)
  %47 = icmp ne i32 %46, 0
  br i1 %47, label %70, label %50

48:                                               ; preds = %38
  br i1 false, label %70, label %50

49:                                               ; preds = %28
  br i1 false, label %70, label %50

50:                                               ; preds = %49, %48, %43
  call void @llvm.lifetime.start.p0(i64 8, ptr %11) #9
  %51 = load ptr, ptr %10, align 8, !tbaa !16
  %52 = load ptr, ptr %9, align 8, !tbaa !16
  %53 = load i64, ptr %8, align 8, !tbaa !3
  %54 = call ptr @try_realloc_chunk(ptr noundef %51, ptr noundef %52, i64 noundef %53, i32 noundef 0)
  store ptr %54, ptr %11, align 8, !tbaa !16
  %55 = load ptr, ptr %10, align 8, !tbaa !16
  %56 = getelementptr inbounds nuw %struct.malloc_state, ptr %55, i32 0, i32 15
  %57 = load i32, ptr %56, align 8, !tbaa !10
  %58 = and i32 %57, 2
  %59 = icmp ne i32 %58, 0
  br i1 %59, label %60, label %63

60:                                               ; preds = %50
  %61 = load ptr, ptr %10, align 8, !tbaa !16
  %62 = getelementptr inbounds nuw %struct.malloc_state, ptr %61, i32 0, i32 16
  store atomic i32 0, ptr %62 release, align 4
  br label %63

63:                                               ; preds = %60, %50
  %64 = load ptr, ptr %11, align 8, !tbaa !16
  %65 = load ptr, ptr %9, align 8, !tbaa !16
  %66 = icmp eq ptr %64, %65
  br i1 %66, label %67, label %69

67:                                               ; preds = %63
  %68 = load ptr, ptr %5, align 8, !tbaa !16
  store ptr %68, ptr %7, align 8, !tbaa !16
  br label %69

69:                                               ; preds = %67, %63
  call void @llvm.lifetime.end.p0(i64 8, ptr %11) #9
  br label %70

70:                                               ; preds = %69, %49, %48, %43
  call void @llvm.lifetime.end.p0(i64 8, ptr %10) #9
  call void @llvm.lifetime.end.p0(i64 8, ptr %9) #9
  call void @llvm.lifetime.end.p0(i64 8, ptr %8) #9
  br label %71

71:                                               ; preds = %70, %17
  br label %72

72:                                               ; preds = %71, %3
  %73 = load ptr, ptr %7, align 8, !tbaa !16
  call void @llvm.lifetime.end.p0(i64 8, ptr %7) #9
  ret ptr %73
}