; Function Attrs: nounwind uwtable
define hidden ptr @mspace_realloc_in_place(ptr noundef %0, ptr noundef %1, i64 noundef %2) local_unnamed_addr #0 {
  %.not = icmp eq ptr %1, null
  br i1 %.not, label %35, label %4

4:                                                ; preds = %3
  %5 = icmp ugt i64 %2, -129
  br i1 %5, label %6, label %8

6:                                                ; preds = %4
  %7 = tail call ptr @__errno_location() #19
  store i32 12, ptr %7, align 4, !tbaa !13
  br label %35

8:                                                ; preds = %4
  %9 = icmp ult i64 %2, 23
  %10 = add nuw i64 %2, 23
  %11 = and i64 %10, -16
  %12 = select i1 %9, i64 32, i64 %11
  %13 = getelementptr inbounds i8, ptr %1, i64 -16
  %14 = getelementptr inbounds nuw i8, ptr %0, i64 880
  %15 = load i32, ptr %14, align 8, !tbaa !9
  %16 = and i32 %15, 2
  %.not19 = icmp eq i32 %16, 0
  br i1 %.not19, label %spin_acquire_lock.exit, label %17

17:                                               ; preds = %8
  %18 = getelementptr inbounds nuw i8, ptr %0, i64 884
  %19 = atomicrmw xchg ptr %18, i32 1 seq_cst, align 4
  %.not20 = icmp eq i32 %19, 0
  br i1 %.not20, label %spin_acquire_lock.exit, label %.preheader

.preheader:                                       ; preds = %17, %.preheader.backedge
  %.0.i = phi i32 [ %23, %.preheader.backedge ], [ 0, %17 ]
  %20 = load volatile i32, ptr %18, align 4, !tbaa !13
  %.not.i = icmp eq i32 %20, 0
  br i1 %.not.i, label %21, label %.critedge.i

21:                                               ; preds = %.preheader
  %22 = atomicrmw xchg ptr %18, i32 1 seq_cst, align 4
  %.not2.i = icmp eq i32 %22, 0
  br i1 %.not2.i, label %spin_acquire_lock.exit, label %.critedge.i

.critedge.i:                                      ; preds = %21, %.preheader
  %23 = add nuw nsw i32 %.0.i, 1
  %24 = and i32 %23, 63
  %25 = icmp eq i32 %24, 0
  br i1 %25, label %26, label %.preheader.backedge

26:                                               ; preds = %.critedge.i
  %27 = tail call i32 @sched_yield() #17
  br label %.preheader.backedge

.preheader.backedge:                              ; preds = %26, %.critedge.i
  br label %.preheader, !llvm.loop !14

spin_acquire_lock.exit:                           ; preds = %21, %8, %17
  %28 = tail call fastcc ptr @try_realloc_chunk(ptr noundef nonnull %0, ptr noundef %13, i64 noundef %12, i32 noundef 0)
  %29 = load i32, ptr %14, align 8, !tbaa !9
  %30 = and i32 %29, 2
  %.not21 = icmp eq i32 %30, 0
  br i1 %.not21, label %33, label %31

31:                                               ; preds = %spin_acquire_lock.exit
  %32 = getelementptr inbounds nuw i8, ptr %0, i64 884
  store atomic i32 0, ptr %32 release, align 4
  br label %33

33:                                               ; preds = %31, %spin_acquire_lock.exit
  %34 = icmp eq ptr %28, %13
  %spec.select = select i1 %34, ptr %1, ptr null
  br label %35

35:                                               ; preds = %6, %33, %3
  %.0 = phi ptr [ null, %6 ], [ %spec.select, %33 ], [ null, %3 ]
  ret ptr %.0
}